target datalayout = "e-m:e-p270:32:32-p271:32:32-p272:64:64-i64:64-i128:128-f80:128-n8:16:32:64-S128"
target triple = "x86_64-pc-linux-gnu"

%struct.jit_State = type { %struct.GCtrace, ptr, ptr, ptr, ptr, ptr, ptr, i32, i32, i32, i8, i8, %struct.IRType1, i8, %struct.FoldState, ptr, i32, i32, i32, i32, i32, i32, i32, [1 x i32], [5 x %union.TValue], [3 x %union.TValue], ptr, i32, i32, i32, i32, ptr, ptr, i32, i32, i8, ptr, i32, i32, i16, [101 x i16], [258 x i32], [15 x i32], [16 x ptr], [64 x %struct.HotPenalty], i32, [16 x %struct.BPropEntry], i32, %struct.ScEvEntry, ptr, i32, i32, i32, ptr, i32, i32, ptr, ptr, ptr, i64, i64, %union.TValue, ptr, i32, i32 }
%struct.GCtrace = type { %struct.GCRef, i8, i8, i16, i32, i32, %struct.GCRef, ptr, i32, i32, ptr, ptr, %struct.GCRef, %struct.MRef, i32, i32, ptr, i32, i16, i16, i16, i16, i16, i16, i16, i8, i8, i8, i8 }
%struct.GCRef = type { i64 }
%struct.MRef = type { i64 }
%struct.IRType1 = type { i8 }
%struct.FoldState = type { %union.IRIns, [2 x %union.IRIns], [2 x %union.IRIns] }
%union.IRIns = type { %struct.GCRef }
%struct.HotPenalty = type { %struct.MRef, i16, i16 }
%struct.BPropEntry = type { i16, i16, i32 }
%struct.ScEvEntry = type { %struct.MRef, i16, i16, i16, i16, %struct.IRType1, i8 }
%union.TValue = type { i64 }
%struct.RecordFFData = type { ptr, i64, i32 }
%struct.GG_State = type { %struct.lua_State, %struct.global_State, %struct.jit_State, [64 x i16], [243 x ptr], [57 x i32] }
%struct.lua_State = type { %struct.GCRef, i8, i8, i8, i8, %struct.MRef, %struct.GCRef, ptr, ptr, %struct.MRef, %struct.MRef, %struct.GCRef, %struct.GCRef, ptr, i32 }
%struct.global_State = type { ptr, ptr, %struct.GCState, %struct.GCstr, i8, i8, i8, i8, %struct.StrInternState, i32, %struct.GCRef, %struct.SBuf, %union.TValue, %union.TValue, %struct.Node, %union.TValue, %struct.GCupval, i32, i32, ptr, ptr, ptr, i32, i32, %struct.GCRef, %struct.MRef, %struct.MRef, %struct.PRNGState, [39 x %struct.GCRef] }
%struct.GCState = type { i64, i64, i8, i8, i8, i8, i32, %struct.GCRef, %struct.MRef, %struct.GCRef, %struct.GCRef, %struct.GCRef, %struct.GCRef, i64, i64, i32, i32, %struct.MRef }
%struct.GCstr = type { %struct.GCRef, i8, i8, i8, i8, i32, i32, i32 }
%struct.StrInternState = type { ptr, i32, i32, i32, i8, i8, i8, i8, i64 }
%struct.SBuf = type { ptr, ptr, ptr, %struct.MRef }
%struct.Node = type { %union.TValue, %union.TValue, %struct.MRef }
%struct.GCupval = type { %struct.GCRef, i8, i8, i8, i8, %union.anon, %struct.MRef, i32 }
%union.anon = type { %struct.anon.3 }
%struct.anon.3 = type { %struct.GCRef, %struct.GCRef }
%struct.PRNGState = type { [4 x i64] }
%struct.CType = type { i32, i32, i16, i16, %struct.GCRef }
%struct.anon = type { i16, i16, i16, i16 }
%struct.CTState = type { ptr, i32, i32, ptr, ptr, ptr, %struct.CCallback, [128 x i16] }
%struct.CCallback = type { [8 x %union.FPRCBArg], [8 x i64], ptr, ptr, ptr, i32, i32, i32 }
%union.FPRCBArg = type { double }

; Function Attrs: alwaysinline nounwind uwtable
define internal i32 @ctype_check(ptr noundef %0, i32 noundef %1) #2 {
  %3 = alloca ptr, align 8
  %4 = alloca i32, align 4
  store ptr %0, ptr %3, align 8, !tbaa !49
  store i32 %1, ptr %4, align 4, !tbaa !31
  %5 = load i32, ptr %4, align 4, !tbaa !31
  ret i32 %5
}

; Function Attrs: alwaysinline nounwind uwtable
define internal void @lj_ir_set_(ptr noundef %0, i16 noundef zeroext %1, i16 noundef zeroext %2, i16 noundef zeroext %3) #2 {
  %5 = alloca ptr, align 8
  %6 = alloca i16, align 2
  %7 = alloca i16, align 2
  %8 = alloca i16, align 2
  store ptr %0, ptr %5, align 8, !tbaa !4
  store i16 %1, ptr %6, align 2, !tbaa !70
  store i16 %2, ptr %7, align 2, !tbaa !70
  store i16 %3, ptr %8, align 2, !tbaa !70
  %9 = load i16, ptr %6, align 2, !tbaa !70
  %10 = load ptr, ptr %5, align 8, !tbaa !4
  %11 = getelementptr inbounds nuw %struct.jit_State, ptr %10, i32 0, i32 14
  %12 = getelementptr inbounds nuw %struct.FoldState, ptr %11, i32 0, i32 0
  %13 = getelementptr inbounds nuw %struct.anon, ptr %12, i32 0, i32 2
  store i16 %9, ptr %13, align 4, !tbaa !58
  %14 = load i16, ptr %7, align 2, !tbaa !70
  %15 = load ptr, ptr %5, align 8, !tbaa !4
  %16 = getelementptr inbounds nuw %struct.jit_State, ptr %15, i32 0, i32 14
  %17 = getelementptr inbounds nuw %struct.FoldState, ptr %16, i32 0, i32 0
  %18 = getelementptr inbounds nuw %struct.anon, ptr %17, i32 0, i32 0
  store i16 %14, ptr %18, align 8, !tbaa !58
  %19 = load i16, ptr %8, align 2, !tbaa !70
  %20 = load ptr, ptr %5, align 8, !tbaa !4
  %21 = getelementptr inbounds nuw %struct.jit_State, ptr %20, i32 0, i32 14
  %22 = getelementptr inbounds nuw %struct.FoldState, ptr %21, i32 0, i32 0
  %23 = getelementptr inbounds nuw %struct.anon, ptr %22, i32 0, i32 1
  store i16 %19, ptr %23, align 2, !tbaa !58
  ret void
}

; Function Attrs: nounwind uwtable
define internal i32 @crec_toint(ptr noundef %0, ptr noundef %1, i32 noundef %2, ptr noundef %3) #0 {
  %5 = alloca ptr, align 8
  %6 = alloca ptr, align 8
  %7 = alloca i32, align 4
  %8 = alloca ptr, align 8
  store ptr %0, ptr %5, align 8, !tbaa !4
  store ptr %1, ptr %6, align 8, !tbaa !49
  store i32 %2, ptr %7, align 4, !tbaa !31
  store ptr %3, ptr %8, align 8, !tbaa !67
  %9 = load ptr, ptr %5, align 8, !tbaa !4
  %10 = load ptr, ptr %6, align 8, !tbaa !49
  %11 = call ptr @ctype_get(ptr noundef %10, i32 noundef 9)
  %12 = load i32, ptr %7, align 4, !tbaa !31
  %13 = load ptr, ptr %8, align 8, !tbaa !67
  %14 = call i32 @crec_ct_tv(ptr noundef %9, ptr noundef %11, i32 noundef 0, i32 noundef %12, ptr noundef %13)
  ret i32 %14
}

; Function Attrs: alwaysinline nounwind uwtable
define internal ptr @ctype_get(ptr noundef %0, i32 noundef %1) #2 {
  %3 = alloca ptr, align 8
  %4 = alloca i32, align 4
  store ptr %0, ptr %3, align 8, !tbaa !49
  store i32 %1, ptr %4, align 4, !tbaa !31
  %5 = load ptr, ptr %3, align 8, !tbaa !49
  %6 = getelementptr inbounds nuw %struct.CTState, ptr %5, i32 0, i32 0
  %7 = load ptr, ptr %6, align 8, !tbaa !79
  %8 = load ptr, ptr %3, align 8, !tbaa !49
  %9 = load i32, ptr %4, align 4, !tbaa !31
  %10 = call i32 @ctype_check(ptr noundef %8, i32 noundef %9)
  %11 = zext i32 %10 to i64
  %12 = getelementptr inbounds nuw %struct.CType, ptr %7, i64 %11
  ret ptr %12
}

; Function Attrs: nounwind uwtable
define hidden void @recff_ffi_copy(ptr noundef %0, ptr noundef %1) #0 {
  %3 = alloca ptr, align 8
  %4 = alloca ptr, align 8
  %5 = alloca ptr, align 8
  %6 = alloca i32, align 4
  %7 = alloca i32, align 4
  %8 = alloca i32, align 4
  store ptr %0, ptr %3, align 8, !tbaa !4
  store ptr %1, ptr %4, align 8, !tbaa !9
  call void @llvm.lifetime.start.p0(i64 8, ptr %5) #7
  %9 = load ptr, ptr %3, align 8, !tbaa !4
  %10 = getelementptr inbounds i8, ptr %9, i64 -832
  %11 = getelementptr inbounds nuw %struct.GG_State, ptr %10, i32 0, i32 1
  %12 = getelementptr inbounds nuw %struct.global_State, ptr %11, i32 0, i32 26
  %13 = getelementptr inbounds nuw %struct.MRef, ptr %12, i32 0, i32 0
  %14 = load i64, ptr %13, align 8, !tbaa !38
  %15 = inttoptr i64 %14 to ptr
  store ptr %15, ptr %5, align 8, !tbaa !49
  call void @llvm.lifetime.start.p0(i64 4, ptr %6) #7
  %16 = load ptr, ptr %3, align 8, !tbaa !4
  %17 = getelementptr inbounds nuw %struct.jit_State, ptr %16, i32 0, i32 6
  %18 = load ptr, ptr %17, align 8, !tbaa !11
  %19 = getelementptr inbounds i32, ptr %18, i64 0
  %20 = load i32, ptr %19, align 4, !tbaa !31
  store i32 %20, ptr %6, align 4, !tbaa !31
  call void @llvm.lifetime.start.p0(i64 4, ptr %7) #7
  %21 = load ptr, ptr %3, align 8, !tbaa !4
  %22 = getelementptr inbounds nuw %struct.jit_State, ptr %21, i32 0, i32 6
  %23 = load ptr, ptr %22, align 8, !tbaa !11
  %24 = getelementptr inbounds i32, ptr %23, i64 1
  %25 = load i32, ptr %24, align 4, !tbaa !31
  store i32 %25, ptr %7, align 4, !tbaa !31
  call void @llvm.lifetime.start.p0(i64 4, ptr %8) #7
  %26 = load ptr, ptr %3, align 8, !tbaa !4
  %27 = getelementptr inbounds nuw %struct.jit_State, ptr %26, i32 0, i32 6
  %28 = load ptr, ptr %27, align 8, !tbaa !11
  %29 = getelementptr inbounds i32, ptr %28, i64 2
  %30 = load i32, ptr %29, align 4, !tbaa !31
  store i32 %30, ptr %8, align 4, !tbaa !31
  %31 = load i32, ptr %6, align 4, !tbaa !31
  %32 = icmp ne i32 %31, 0
  br i1 %32, label %33, label %98

33:                                               ; preds = %2
  %34 = load i32, ptr %7, align 4, !tbaa !31
  %35 = icmp ne i32 %34, 0
  br i1 %35, label %36, label %98

36:                                               ; preds = %33
  %37 = load i32, ptr %8, align 4, !tbaa !31
  %38 = icmp ne i32 %37, 0
  br i1 %38, label %43, label %39

39:                                               ; preds = %36
  %40 = load i32, ptr %7, align 4, !tbaa !31
  %41 = and i32 %40, 520093696
  %42 = icmp eq i32 %41, 67108864
  br i1 %42, label %43, label %98

43:                                               ; preds = %39, %36
  %44 = load ptr, ptr %3, align 8, !tbaa !4
  %45 = load ptr, ptr %5, align 8, !tbaa !49
  %46 = call ptr @ctype_get(ptr noundef %45, i32 noundef 17)
  %47 = load i32, ptr %6, align 4, !tbaa !31
  %48 = load ptr, ptr %4, align 8, !tbaa !9
  %49 = getelementptr inbounds nuw %struct.RecordFFData, ptr %48, i32 0, i32 0
  %50 = load ptr, ptr %49, align 8, !tbaa !33
  %51 = getelementptr inbounds %union.TValue, ptr %50, i64 0
  %52 = call i32 @crec_ct_tv(ptr noundef %44, ptr noundef %46, i32 noundef 0, i32 noundef %47, ptr noundef %51)
  store i32 %52, ptr %6, align 4, !tbaa !31
  %53 = load ptr, ptr %3, align 8, !tbaa !4
  %54 = load ptr, ptr %5, align 8, !tbaa !49
  %55 = call ptr @ctype_get(ptr noundef %54, i32 noundef 18)
  %56 = load i32, ptr %7, align 4, !tbaa !31
  %57 = load ptr, ptr %4, align 8, !tbaa !9
  %58 = getelementptr inbounds nuw %struct.RecordFFData, ptr %57, i32 0, i32 0
  %59 = load ptr, ptr %58, align 8, !tbaa !33
  %60 = getelementptr inbounds %union.TValue, ptr %59, i64 1
  %61 = call i32 @crec_ct_tv(ptr noundef %53, ptr noundef %55, i32 noundef 0, i32 noundef %56, ptr noundef %60)
  store i32 %61, ptr %7, align 4, !tbaa !31
  %62 = load i32, ptr %8, align 4, !tbaa !31
  %63 = icmp ne i32 %62, 0
  br i1 %63, label %64, label %73

64:                                               ; preds = %43
  %65 = load ptr, ptr %3, align 8, !tbaa !4
  %66 = load ptr, ptr %5, align 8, !tbaa !49
  %67 = load i32, ptr %8, align 4, !tbaa !31
  %68 = load ptr, ptr %4, align 8, !tbaa !9
  %69 = getelementptr inbounds nuw %struct.RecordFFData, ptr %68, i32 0, i32 0
  %70 = load ptr, ptr %69, align 8, !tbaa !33
  %71 = getelementptr inbounds %union.TValue, ptr %70, i64 2
  %72 = call i32 @crec_toint(ptr noundef %65, ptr noundef %66, i32 noundef %67, ptr noundef %71)
  store i32 %72, ptr %8, align 4, !tbaa !31
  br label %91

73:                                               ; preds = %43
  %74 = load ptr, ptr %3, align 8, !tbaa !4
  %75 = load ptr, ptr %3, align 8, !tbaa !4
  %76 = getelementptr inbounds nuw %struct.jit_State, ptr %75, i32 0, i32 6
  %77 = load ptr, ptr %76, align 8, !tbaa !11
  %78 = getelementptr inbounds i32, ptr %77, i64 1
  %79 = load i32, ptr %78, align 4, !tbaa !31
  %80 = trunc i32 %79 to i16
  call void @lj_ir_set_(ptr noundef %74, i16 noundef zeroext 17683, i16 noundef zeroext %80, i16 noundef zeroext 0)
  %81 = load ptr, ptr %3, align 8, !tbaa !4
  %82 = call i32 @lj_opt_fold(ptr noundef %81)
  store i32 %82, ptr %8, align 4, !tbaa !31
  %83 = load ptr, ptr %3, align 8, !tbaa !4
  %84 = load i32, ptr %8, align 4, !tbaa !31
  %85 = trunc i32 %84 to i16
  %86 = load ptr, ptr %3, align 8, !tbaa !4
  %87 = call i32 @lj_ir_kint(ptr noundef %86, i32 noundef 1)
  %88 = trunc i32 %87 to i16
  call void @lj_ir_set_(ptr noundef %83, i16 noundef zeroext 10515, i16 noundef zeroext %85, i16 noundef zeroext %88)
  %89 = load ptr, ptr %3, align 8, !tbaa !4
  %90 = call i32 @lj_opt_fold(ptr noundef %89)
  store i32 %90, ptr %8, align 4, !tbaa !31
  br label %91

91:                                               ; preds = %73, %64
  %92 = load ptr, ptr %4, align 8, !tbaa !9
  %93 = getelementptr inbounds nuw %struct.RecordFFData, ptr %92, i32 0, i32 1
  store i64 0, ptr %93, align 8, !tbaa !65
  %94 = load ptr, ptr %3, align 8, !tbaa !4
  %95 = load i32, ptr %6, align 4, !tbaa !31
  %96 = load i32, ptr %7, align 4, !tbaa !31
  %97 = load i32, ptr %8, align 4, !tbaa !31
  call void @crec_copy(ptr noundef %94, i32 noundef %95, i32 noundef %96, i32 noundef %97, ptr noundef null)
  br label %98

98:                                               ; preds = %91, %39, %33, %2
  call void @llvm.lifetime.end.p0(i64 4, ptr %8) #7
  call void @llvm.lifetime.end.p0(i64 4, ptr %7) #7
  call void @llvm.lifetime.end.p0(i64 4, ptr %6) #7
  call void @llvm.lifetime.end.p0(i64 8, ptr %5) #7
  ret void
}