; Function Attrs: nounwind uwtable
define hidden void @recff_ffi_copy(ptr noundef %0, ptr noundef captures(none) %1) local_unnamed_addr #0 {
  %3 = getelementptr inbounds i8, ptr %0, i64 -352
  %4 = load i64, ptr %3, align 8, !tbaa !34
  %5 = inttoptr i64 %4 to ptr
  %6 = getelementptr inbounds nuw i8, ptr %0, i64 160
  %7 = load ptr, ptr %6, align 8, !tbaa !4
  %8 = load i32, ptr %7, align 4, !tbaa !27
  %9 = getelementptr inbounds nuw i8, ptr %7, i64 4
  %10 = load i32, ptr %9, align 4, !tbaa !27
  %11 = getelementptr inbounds nuw i8, ptr %7, i64 8
  %12 = load i32, ptr %11, align 4, !tbaa !27
  %13 = icmp ne i32 %8, 0
  %14 = icmp ne i32 %10, 0
  %or.cond = select i1 %13, i1 %14, i1 false
  br i1 %or.cond, label %15, label %48

15:                                               ; preds = %2
  %.not = icmp ne i32 %12, 0
  %16 = and i32 %10, 520093696
  %17 = icmp eq i32 %16, 67108864
  %or.cond37 = select i1 %.not, i1 true, i1 %17
  br i1 %or.cond37, label %18, label %48

18:                                               ; preds = %15
  %19 = load ptr, ptr %5, align 8, !tbaa !45
  %20 = getelementptr inbounds nuw i8, ptr %19, i64 408
  %21 = load ptr, ptr %1, align 8, !tbaa !28
  %22 = tail call fastcc i32 @crec_ct_tv(ptr noundef nonnull %0, ptr noundef nonnull %20, i32 noundef 0, i32 noundef %8, ptr noundef %21)
  %23 = load ptr, ptr %5, align 8, !tbaa !45
  %24 = getelementptr inbounds nuw i8, ptr %23, i64 432
  %25 = load ptr, ptr %1, align 8, !tbaa !28
  %26 = getelementptr inbounds nuw i8, ptr %25, i64 8
  %27 = tail call fastcc i32 @crec_ct_tv(ptr noundef nonnull %0, ptr noundef nonnull %24, i32 noundef 0, i32 noundef %10, ptr noundef nonnull %26)
  br i1 %.not, label %28, label %33

28:                                               ; preds = %18
  %29 = load ptr, ptr %1, align 8, !tbaa !28
  %30 = getelementptr inbounds nuw i8, ptr %29, i64 16
  %.val = load ptr, ptr %5, align 8, !tbaa !45
  %31 = getelementptr inbounds nuw i8, ptr %.val, i64 216
  %32 = tail call fastcc i32 @crec_ct_tv(ptr noundef nonnull %0, ptr noundef nonnull %31, i32 noundef 0, i32 noundef %12, ptr noundef nonnull readonly %30)
  br label %46

33:                                               ; preds = %18
  %34 = load ptr, ptr %6, align 8, !tbaa !4
  %35 = getelementptr inbounds nuw i8, ptr %34, i64 4
  %36 = load i32, ptr %35, align 4, !tbaa !27
  %37 = trunc i32 %36 to i16
  %38 = getelementptr inbounds nuw i8, ptr %0, i64 184
  %39 = getelementptr inbounds nuw i8, ptr %0, i64 188
  store i16 17683, ptr %39, align 4, !tbaa !31
  store i16 %37, ptr %38, align 8, !tbaa !31
  %40 = getelementptr inbounds nuw i8, ptr %0, i64 186
  store i16 0, ptr %40, align 2, !tbaa !31
  %41 = tail call i32 @lj_opt_fold(ptr noundef nonnull %0) #8
  %42 = trunc i32 %41 to i16
  %43 = tail call i32 @lj_ir_kint(ptr noundef nonnull %0, i32 noundef 1) #8
  %44 = trunc i32 %43 to i16
  store i16 10515, ptr %39, align 4, !tbaa !31
  store i16 %42, ptr %38, align 8, !tbaa !31
  store i16 %44, ptr %40, align 2, !tbaa !31
  %45 = tail call i32 @lj_opt_fold(ptr noundef nonnull %0) #8
  br label %46

46:                                               ; preds = %33, %28
  %.0 = phi i32 [ %32, %28 ], [ %45, %33 ]
  %47 = getelementptr inbounds nuw i8, ptr %1, i64 8
  store i64 0, ptr %47, align 8, !tbaa !65
  tail call fastcc void @crec_copy(ptr noundef nonnull %0, i32 noundef %22, i32 noundef %27, i32 noundef %.0, ptr noundef null)
  br label %48

48:                                               ; preds = %15, %46, %2
  ret void
}